target datalayout = "e-m:e-p270:32:32-p271:32:32-p272:64:64-i64:64-i128:128-f80:128-n8:16:32:64-S128"
target triple = "x86_64-pc-linux-gnu"

%struct.rb_data_type_struct = type { ptr, %struct.anon.14, ptr, ptr, i64 }
%struct.anon.14 = type { ptr, ptr, ptr, ptr, [1 x ptr] }
%struct.RBasic = type { i64, i64 }
%struct.RData = type { %struct.RBasic, ptr, ptr, ptr }
%struct.rb_proc_t = type { %struct.rb_block, i8 }
%struct.rb_block = type { %union.anon.12, i32 }
%union.anon.12 = type { %struct.rb_captured_block }
%struct.rb_captured_block = type { i64, ptr, %union.anon.13 }
%union.anon.13 = type { ptr }
%struct.vm_ifunc_argc = type { i32, i32 }
%struct.vm_ifunc = type { i64, ptr, ptr, ptr, %struct.vm_ifunc_argc }
%struct.METHOD = type { i64, i64, i64, i64, ptr }
%struct.rb_method_entry_struct = type { i64, i64, ptr, i64, i64 }
%struct.rb_method_definition_struct = type { i64, %union.anon.25, i64, i64 }
%union.anon.25 = type { %struct.rb_method_cfunc_struct }
%struct.rb_method_cfunc_struct = type { ptr, ptr, i32 }
%struct.rb_method_iseq_struct = type { ptr, ptr }
%struct.rb_method_bmethod_struct = type { i64, ptr, i64 }
%struct.rb_method_alias_struct = type { ptr }

@method_data_type = internal constant %struct.rb_data_type_struct { ptr @.str.53, %struct.anon.14 { ptr @bm_mark_and_move, ptr inttoptr (i64 -1 to ptr), ptr null, ptr @bm_mark_and_move, [1 x ptr] zeroinitializer }, ptr null, ptr null, i64 35 }, align 8

; Function Attrs: nounwind sspstrong uwtable
define internal ptr @method_def_iseq(ptr noundef %0) #0 {
  %2 = alloca ptr, align 8
  %3 = alloca ptr, align 8
  store ptr %0, ptr %3, align 8, !tbaa !110
  %4 = load ptr, ptr %3, align 8, !tbaa !110
  %5 = load i64, ptr %4, align 8
  %6 = and i64 %5, 15
  %7 = trunc i64 %6 to i32
  switch i32 %7, label %29 [
    i32 0, label %8
    i32 4, label %14
    i32 6, label %20
    i32 1, label %28
    i32 2, label %28
    i32 3, label %28
    i32 5, label %28
    i32 7, label %28
    i32 8, label %28
    i32 9, label %28
    i32 10, label %28
    i32 11, label %28
  ]

8:                                                ; preds = %1
  %9 = load ptr, ptr %3, align 8, !tbaa !110
  %10 = getelementptr inbounds nuw %struct.rb_method_definition_struct, ptr %9, i32 0, i32 1
  %11 = getelementptr inbounds nuw %struct.rb_method_iseq_struct, ptr %10, i32 0, i32 0
  %12 = load ptr, ptr %11, align 8, !tbaa !34
  %13 = call ptr @rb_iseq_check(ptr noundef %12)
  store ptr %13, ptr %2, align 8
  br label %30

14:                                               ; preds = %1
  %15 = load ptr, ptr %3, align 8, !tbaa !110
  %16 = getelementptr inbounds nuw %struct.rb_method_definition_struct, ptr %15, i32 0, i32 1
  %17 = getelementptr inbounds nuw %struct.rb_method_bmethod_struct, ptr %16, i32 0, i32 0
  %18 = load i64, ptr %17, align 8, !tbaa !34
  %19 = call ptr @rb_proc_get_iseq(i64 noundef %18, ptr noundef null)
  store ptr %19, ptr %2, align 8
  br label %30

20:                                               ; preds = %1
  %21 = load ptr, ptr %3, align 8, !tbaa !110
  %22 = getelementptr inbounds nuw %struct.rb_method_definition_struct, ptr %21, i32 0, i32 1
  %23 = getelementptr inbounds nuw %struct.rb_method_alias_struct, ptr %22, i32 0, i32 0
  %24 = load ptr, ptr %23, align 8, !tbaa !34
  %25 = getelementptr inbounds nuw %struct.rb_method_entry_struct, ptr %24, i32 0, i32 2
  %26 = load ptr, ptr %25, align 8, !tbaa !109
  %27 = call ptr @method_def_iseq(ptr noundef %26)
  store ptr %27, ptr %2, align 8
  br label %30

28:                                               ; preds = %1, %1, %1, %1, %1, %1, %1, %1, %1
  br label %29

29:                                               ; preds = %1, %28
  store ptr null, ptr %2, align 8
  br label %30

30:                                               ; preds = %29, %20, %14, %8
  %31 = load ptr, ptr %2, align 8
  ret ptr %31
}

; Function Attrs: nounwind sspstrong uwtable
define hidden ptr @rb_method_def(i64 noundef %0) #0 {
  %2 = alloca i64, align 8
  %3 = alloca ptr, align 8
  store i64 %0, ptr %2, align 8, !tbaa !7
  call void @llvm.lifetime.start.p0(i64 8, ptr %3) #25
  %4 = load i64, ptr %2, align 8, !tbaa !7
  %5 = call ptr @rb_check_typeddata(i64 noundef %4, ptr noundef @method_data_type)
  store ptr %5, ptr %3, align 8, !tbaa !95
  %6 = load ptr, ptr %3, align 8, !tbaa !95
  %7 = getelementptr inbounds nuw %struct.METHOD, ptr %6, i32 0, i32 4
  %8 = load ptr, ptr %7, align 8, !tbaa !104
  %9 = getelementptr inbounds nuw %struct.rb_method_entry_struct, ptr %8, i32 0, i32 2
  %10 = load ptr, ptr %9, align 8, !tbaa !109
  call void @llvm.lifetime.end.p0(i64 8, ptr %3) #25
  ret ptr %10
}

; Function Attrs: nounwind sspstrong uwtable
define dso_local ptr @rb_method_iseq(i64 noundef %0) #0 {
  %2 = alloca i64, align 8
  store i64 %0, ptr %2, align 8, !tbaa !7
  %3 = load i64, ptr %2, align 8, !tbaa !7
  %4 = call ptr @rb_method_def(i64 noundef %3)
  %5 = call ptr @method_def_iseq(ptr noundef %4)
  ret ptr %5
}

; Function Attrs: inlinehint nounwind sspstrong uwtable
define internal ptr @rb_iseq_check(ptr noundef %0) #3 {
  %2 = alloca ptr, align 8
  store ptr %0, ptr %2, align 8, !tbaa !58
  %3 = load ptr, ptr %2, align 8, !tbaa !58
  ret ptr %3
}

; Function Attrs: inlinehint nounwind sspstrong uwtable
define internal i32 @vm_block_type(ptr noundef %0) #3 {
  %2 = alloca ptr, align 8
  store ptr %0, ptr %2, align 8, !tbaa !48
  %3 = load ptr, ptr %2, align 8, !tbaa !48
  %4 = getelementptr inbounds nuw %struct.rb_block, ptr %3, i32 0, i32 1
  %5 = load i32, ptr %4, align 8, !tbaa !55
  ret i32 %5
}

; Function Attrs: nounwind sspstrong uwtable
define dso_local ptr @rb_proc_get_iseq(i64 noundef %0, ptr noundef %1) #0 {
  %3 = alloca ptr, align 8
  %4 = alloca i64, align 8
  %5 = alloca ptr, align 8
  %6 = alloca ptr, align 8
  %7 = alloca ptr, align 8
  %8 = alloca i32, align 4
  %9 = alloca ptr, align 8
  store i64 %0, ptr %4, align 8, !tbaa !7
  store ptr %1, ptr %5, align 8, !tbaa !50
  call void @llvm.lifetime.start.p0(i64 8, ptr %6) #25
  call void @llvm.lifetime.start.p0(i64 8, ptr %7) #25
  %10 = load i64, ptr %4, align 8, !tbaa !7
  %11 = inttoptr i64 %10 to ptr
  %12 = getelementptr inbounds nuw %struct.RData, ptr %11, i32 0, i32 3
  %13 = load ptr, ptr %12, align 8, !tbaa !17
  store ptr %13, ptr %6, align 8, !tbaa !11
  %14 = load ptr, ptr %6, align 8, !tbaa !11
  %15 = getelementptr inbounds nuw %struct.rb_proc_t, ptr %14, i32 0, i32 0
  store ptr %15, ptr %7, align 8, !tbaa !48
  %16 = load ptr, ptr %5, align 8, !tbaa !50
  %17 = icmp ne ptr %16, null
  br i1 %17, label %18, label %29

18:                                               ; preds = %2
  %19 = load ptr, ptr %6, align 8, !tbaa !11
  %20 = getelementptr inbounds nuw %struct.rb_proc_t, ptr %19, i32 0, i32 1
  %21 = load i8, ptr %20, align 8
  %22 = lshr i8 %21, 1
  %23 = and i8 %22, 1
  %24 = zext i8 %23 to i32
  %25 = icmp ne i32 %24, 0
  %26 = xor i1 %25, true
  %27 = zext i1 %26 to i32
  %28 = load ptr, ptr %5, align 8, !tbaa !50
  store i32 %27, ptr %28, align 4, !tbaa !36
  br label %29

29:                                               ; preds = %18, %2
  %30 = load ptr, ptr %7, align 8, !tbaa !48
  %31 = call i32 @vm_block_type(ptr noundef %30)
  switch i32 %31, label %67 [
    i32 0, label %32
    i32 3, label %38
    i32 1, label %44
    i32 2, label %66
  ]

32:                                               ; preds = %29
  %33 = load ptr, ptr %7, align 8, !tbaa !48
  %34 = getelementptr inbounds nuw %struct.rb_block, ptr %33, i32 0, i32 0
  %35 = getelementptr inbounds nuw %struct.rb_captured_block, ptr %34, i32 0, i32 2
  %36 = load ptr, ptr %35, align 8, !tbaa !34
  %37 = call ptr @rb_iseq_check(ptr noundef %36)
  store ptr %37, ptr %3, align 8
  store i32 1, ptr %8, align 4
  br label %68

38:                                               ; preds = %29
  %39 = load ptr, ptr %7, align 8, !tbaa !48
  %40 = getelementptr inbounds nuw %struct.rb_block, ptr %39, i32 0, i32 0
  %41 = load i64, ptr %40, align 8, !tbaa !34
  %42 = load ptr, ptr %5, align 8, !tbaa !50
  %43 = call ptr @rb_proc_get_iseq(i64 noundef %41, ptr noundef %42)
  store ptr %43, ptr %3, align 8
  store i32 1, ptr %8, align 4
  br label %68

44:                                               ; preds = %29
  call void @llvm.lifetime.start.p0(i64 8, ptr %9) #25
  %45 = load ptr, ptr %7, align 8, !tbaa !48
  %46 = getelementptr inbounds nuw %struct.rb_block, ptr %45, i32 0, i32 0
  %47 = getelementptr inbounds nuw %struct.rb_captured_block, ptr %46, i32 0, i32 2
  %48 = load ptr, ptr %47, align 8, !tbaa !34
  store ptr %48, ptr %9, align 8, !tbaa !37
  %49 = load ptr, ptr %9, align 8, !tbaa !37
  %50 = getelementptr inbounds nuw %struct.vm_ifunc, ptr %49, i32 0, i32 2
  %51 = load ptr, ptr %50, align 8, !tbaa !39
  %52 = icmp eq ptr %51, @bmcall
  br i1 %52, label %53, label %64

53:                                               ; preds = %44
  %54 = load ptr, ptr %5, align 8, !tbaa !50
  %55 = icmp ne ptr %54, null
  br i1 %55, label %56, label %58

56:                                               ; preds = %53
  %57 = load ptr, ptr %5, align 8, !tbaa !50
  store i32 0, ptr %57, align 4, !tbaa !36
  br label %58

58:                                               ; preds = %56, %53
  %59 = load ptr, ptr %9, align 8, !tbaa !37
  %60 = getelementptr inbounds nuw %struct.vm_ifunc, ptr %59, i32 0, i32 3
  %61 = load ptr, ptr %60, align 8, !tbaa !42
  %62 = ptrtoint ptr %61 to i64
  %63 = call ptr @rb_method_iseq(i64 noundef %62)
  store ptr %63, ptr %3, align 8
  store i32 1, ptr %8, align 4
  br label %65

64:                                               ; preds = %44
  store ptr null, ptr %3, align 8
  store i32 1, ptr %8, align 4
  br label %65

65:                                               ; preds = %64, %58
  call void @llvm.lifetime.end.p0(i64 8, ptr %9) #25
  br label %68

66:                                               ; preds = %29
  store ptr null, ptr %3, align 8
  store i32 1, ptr %8, align 4
  br label %68

67:                                               ; preds = %29
  unreachable

68:                                               ; preds = %66, %65, %38, %32
  call void @llvm.lifetime.end.p0(i64 8, ptr %7) #25
  call void @llvm.lifetime.end.p0(i64 8, ptr %6) #25
  %69 = load ptr, ptr %3, align 8
  ret ptr %69
}