; Function Attrs: nounwind sspstrong uwtable
define dso_local ptr @rb_proc_get_iseq(i64 noundef %0, ptr noundef writeonly captures(address_is_null) %1) local_unnamed_addr #0 {
  br label %tailrecurse52

tailrecurse52:                                    ; preds = %40, %2
  %.tr53 = phi i64 [ %0, %2 ], [ %42, %40 ]
  %.tr54 = phi ptr [ %1, %2 ], [ null, %40 ]
  %.not = icmp eq ptr %.tr54, null
  br i1 %.not, label %tailrecurse.us, label %tailrecurse

tailrecurse.us:                                   ; preds = %tailrecurse52, %7
  %.tr.us = phi i64 [ %8, %7 ], [ %.tr53, %tailrecurse52 ]
  %3 = inttoptr i64 %.tr.us to ptr
  %4 = getelementptr inbounds nuw i8, ptr %3, i64 32
  %5 = load ptr, ptr %4, align 8, !tbaa !7
  %6 = getelementptr i8, ptr %5, i64 24
  %.val.us = load i32, ptr %6, align 8, !tbaa !14
  switch i32 %.val.us, label %.split25.us [
    i32 0, label %.split27.us
    i32 3, label %7
    i32 1, label %.split29.us
    i32 2, label %.loopexit
  ]

7:                                                ; preds = %tailrecurse.us
  %8 = load i64, ptr %5, align 8, !tbaa !35
  br label %tailrecurse.us

tailrecurse:                                      ; preds = %tailrecurse52, %19
  %.tr = phi i64 [ %20, %19 ], [ %.tr53, %tailrecurse52 ]
  %9 = inttoptr i64 %.tr to ptr
  %10 = getelementptr inbounds nuw i8, ptr %9, i64 32
  %11 = load ptr, ptr %10, align 8, !tbaa !7
  %12 = getelementptr inbounds nuw i8, ptr %11, i64 32
  %13 = load i8, ptr %12, align 8
  %14 = and i8 %13, 2
  %.not16 = icmp eq i8 %14, 0
  %15 = zext i1 %.not16 to i32
  store i32 %15, ptr %.tr54, align 4, !tbaa !41
  %16 = getelementptr i8, ptr %11, i64 24
  %.val = load i32, ptr %16, align 8, !tbaa !14
  switch i32 %.val, label %.split25.us [
    i32 0, label %.split27.us
    i32 3, label %19
    i32 1, label %.split29.us
    i32 2, label %.loopexit
  ]

.split27.us:                                      ; preds = %tailrecurse, %tailrecurse.us
  %.us-phi = phi ptr [ %5, %tailrecurse.us ], [ %11, %tailrecurse ]
  %17 = getelementptr inbounds nuw i8, ptr %.us-phi, i64 16
  %18 = load ptr, ptr %17, align 8, !tbaa !35
  br label %.loopexit

19:                                               ; preds = %tailrecurse
  %20 = load i64, ptr %11, align 8, !tbaa !35
  br label %tailrecurse

.split29.us:                                      ; preds = %tailrecurse, %tailrecurse.us
  %.us-phi30 = phi ptr [ %5, %tailrecurse.us ], [ %11, %tailrecurse ]
  %21 = getelementptr inbounds nuw i8, ptr %.us-phi30, i64 16
  %22 = load ptr, ptr %21, align 8, !tbaa !35
  %23 = getelementptr inbounds nuw i8, ptr %22, i64 16
  %24 = load ptr, ptr %23, align 8, !tbaa !37
  %25 = icmp eq ptr %24, @bmcall
  br i1 %25, label %26, label %.loopexit

26:                                               ; preds = %.split29.us
  br i1 %.not, label %28, label %27

27:                                               ; preds = %26
  store i32 0, ptr %.tr54, align 4, !tbaa !41
  br label %28

28:                                               ; preds = %27, %26
  %29 = getelementptr inbounds nuw i8, ptr %22, i64 24
  %30 = load ptr, ptr %29, align 8, !tbaa !40
  %31 = ptrtoint ptr %30 to i64
  %32 = tail call ptr @rb_check_typeddata(i64 noundef %31, ptr noundef nonnull @method_data_type) #21
  %33 = getelementptr inbounds nuw i8, ptr %32, i64 32
  br label %tailrecurse.i

tailrecurse.i:                                    ; preds = %43, %28
  %.pn.in = phi ptr [ %33, %28 ], [ %44, %43 ]
  %.pn = load ptr, ptr %.pn.in, align 8, !tbaa !35
  %.tr.i.in = getelementptr inbounds nuw i8, ptr %.pn, i64 16
  %.tr.i = load ptr, ptr %.tr.i.in, align 8, !tbaa !77
  %34 = load i64, ptr %.tr.i, align 8
  %35 = trunc i64 %34 to i32
  %36 = and i32 %35, 15
  switch i32 %36, label %.loopexit [
    i32 0, label %37
    i32 4, label %40
    i32 6, label %43
  ]

37:                                               ; preds = %tailrecurse.i
  %38 = getelementptr inbounds nuw i8, ptr %.tr.i, i64 8
  %39 = load ptr, ptr %38, align 8, !tbaa !35
  br label %.loopexit

40:                                               ; preds = %tailrecurse.i
  %41 = getelementptr inbounds nuw i8, ptr %.tr.i, i64 8
  %42 = load i64, ptr %41, align 8, !tbaa !35
  br label %tailrecurse52

43:                                               ; preds = %tailrecurse.i
  %44 = getelementptr inbounds nuw i8, ptr %.tr.i, i64 8
  br label %tailrecurse.i

.split25.us:                                      ; preds = %tailrecurse, %tailrecurse.us
  unreachable

.loopexit:                                        ; preds = %.split29.us, %tailrecurse, %tailrecurse.us, %tailrecurse.i, %37, %.split27.us
  %.0 = phi ptr [ %18, %.split27.us ], [ %39, %37 ], [ null, %tailrecurse.i ], [ null, %tailrecurse.us ], [ null, %tailrecurse ], [ null, %.split29.us ]
  ret ptr %.0
}